; Function Attrs: mustprogress nounwind memory(read, inaccessiblemem: write) uwtable
define internal fastcc noundef i32 @_ZN8facebook5velox9functions12_GLOBAL__N_116SequenceFunctionIiiE14checkArgumentsEPNS0_13DecodedVectorES6_S6_ibb(ptr nocapture noundef readonly %startVector, ptr nocapture noundef readonly %stopVector, ptr noundef readonly %stepVector, i32 noundef %row, i1 noundef zeroext %isDate, i1 noundef zeroext %isYearMonth) unnamed_addr #19 align 2 {
entry:
  %data_.i = getelementptr inbounds i8, ptr %startVector, i64 16
  %0 = load ptr, ptr %data_.i, align 8
  %isIdentityMapping_.i.i = getelementptr inbounds i8, ptr %startVector, i64 58
  %1 = load i8, ptr %isIdentityMapping_.i.i, align 2
  %2 = and i8 %1, 1
  %tobool.not.i.i = icmp eq i8 %2, 0
  br i1 %tobool.not.i.i, label %if.end.i.i, label %_ZNK8facebook5velox13DecodedVector7valueAtIiEET_i.exit

if.end.i.i:                                       ; preds = %entry
  %isConstantMapping_.i.i = getelementptr inbounds i8, ptr %startVector, i64 59
  %3 = load i8, ptr %isConstantMapping_.i.i, align 1
  %4 = and i8 %3, 1
  %tobool2.not.i.i = icmp eq i8 %4, 0
  br i1 %tobool2.not.i.i, label %if.end4.i.i, label %if.then3.i.i

if.then3.i.i:                                     ; preds = %if.end.i.i
  %constantIndex_.i.i = getelementptr inbounds i8, ptr %startVector, i64 64
  %5 = load i32, ptr %constantIndex_.i.i, align 8
  br label %_ZNK8facebook5velox13DecodedVector7valueAtIiEET_i.exit

if.end4.i.i:                                      ; preds = %if.end.i.i
  %indices_.i.i = getelementptr inbounds i8, ptr %startVector, i64 8
  %6 = load ptr, ptr %indices_.i.i, align 8
  %idxprom.i.i = sext i32 %row to i64
  %arrayidx.i.i = getelementptr inbounds i32, ptr %6, i64 %idxprom.i.i
  %7 = load i32, ptr %arrayidx.i.i, align 4
  br label %_ZNK8facebook5velox13DecodedVector7valueAtIiEET_i.exit

_ZNK8facebook5velox13DecodedVector7valueAtIiEET_i.exit: ; preds = %entry, %if.then3.i.i, %if.end4.i.i
  %retval.0.i.i = phi i32 [ %5, %if.then3.i.i ], [ %7, %if.end4.i.i ], [ %row, %entry ]
  %idxprom.i = sext i32 %retval.0.i.i to i64
  %arrayidx.i = getelementptr inbounds i32, ptr %0, i64 %idxprom.i
  %8 = load i32, ptr %arrayidx.i, align 4
  %data_.i16 = getelementptr inbounds i8, ptr %stopVector, i64 16
  %9 = load ptr, ptr %data_.i16, align 8
  %isIdentityMapping_.i.i17 = getelementptr inbounds i8, ptr %stopVector, i64 58
  %10 = load i8, ptr %isIdentityMapping_.i.i17, align 2
  %11 = and i8 %10, 1
  %tobool.not.i.i18 = icmp eq i8 %11, 0
  br i1 %tobool.not.i.i18, label %if.end.i.i22, label %_ZNK8facebook5velox13DecodedVector7valueAtIiEET_i.exit31

if.end.i.i22:                                     ; preds = %_ZNK8facebook5velox13DecodedVector7valueAtIiEET_i.exit
  %isConstantMapping_.i.i23 = getelementptr inbounds i8, ptr %stopVector, i64 59
  %12 = load i8, ptr %isConstantMapping_.i.i23, align 1
  %13 = and i8 %12, 1
  %tobool2.not.i.i24 = icmp eq i8 %13, 0
  br i1 %tobool2.not.i.i24, label %if.end4.i.i27, label %if.then3.i.i25

if.then3.i.i25:                                   ; preds = %if.end.i.i22
  %constantIndex_.i.i26 = getelementptr inbounds i8, ptr %stopVector, i64 64
  %14 = load i32, ptr %constantIndex_.i.i26, align 8
  br label %_ZNK8facebook5velox13DecodedVector7valueAtIiEET_i.exit31

if.end4.i.i27:                                    ; preds = %if.end.i.i22
  %indices_.i.i28 = getelementptr inbounds i8, ptr %stopVector, i64 8
  %15 = load ptr, ptr %indices_.i.i28, align 8
  %idxprom.i.i29 = sext i32 %row to i64
  %arrayidx.i.i30 = getelementptr inbounds i32, ptr %15, i64 %idxprom.i.i29
  %16 = load i32, ptr %arrayidx.i.i30, align 4
  br label %_ZNK8facebook5velox13DecodedVector7valueAtIiEET_i.exit31

_ZNK8facebook5velox13DecodedVector7valueAtIiEET_i.exit31: ; preds = %_ZNK8facebook5velox13DecodedVector7valueAtIiEET_i.exit, %if.then3.i.i25, %if.end4.i.i27
  %retval.0.i.i19 = phi i32 [ %14, %if.then3.i.i25 ], [ %16, %if.end4.i.i27 ], [ %row, %_ZNK8facebook5velox13DecodedVector7valueAtIiEET_i.exit ]
  %idxprom.i20 = sext i32 %retval.0.i.i19 to i64
  %arrayidx.i21 = getelementptr inbounds i32, ptr %9, i64 %idxprom.i20
  %17 = load i32, ptr %arrayidx.i21, align 4
  %conv.i = sext i32 %8 to i64
  %conv.i32 = sext i32 %17 to i64
  %tobool.not.i = icmp eq ptr %stepVector, null
  br i1 %tobool.not.i, label %_ZN8facebook5velox9functions12_GLOBAL__N_116SequenceFunctionIiiE7getStepEllPNS0_13DecodedVectorEibb.exit.thread, label %if.end.i

_ZN8facebook5velox9functions12_GLOBAL__N_116SequenceFunctionIiiE7getStepEllPNS0_13DecodedVectorEibb.exit.thread: ; preds = %_ZNK8facebook5velox13DecodedVector7valueAtIiEET_i.exit31
  %cmp.not.i = icmp slt i32 %17, %8
  %cond.i = select i1 %cmp.not.i, i32 -1, i32 1
  br label %if.end

if.end.i:                                         ; preds = %_ZNK8facebook5velox13DecodedVector7valueAtIiEET_i.exit31
  %data_.i.i = getelementptr inbounds i8, ptr %stepVector, i64 16
  %18 = load ptr, ptr %data_.i.i, align 8
  %isIdentityMapping_.i.i.i = getelementptr inbounds i8, ptr %stepVector, i64 58
  %19 = load i8, ptr %isIdentityMapping_.i.i.i, align 2
  %20 = and i8 %19, 1
  %tobool.not.i.i.i = icmp eq i8 %20, 0
  br i1 %tobool.not.i.i.i, label %if.end.i.i.i, label %_ZNK8facebook5velox13DecodedVector7valueAtIiEET_i.exit.i

if.end.i.i.i:                                     ; preds = %if.end.i
  %isConstantMapping_.i.i.i = getelementptr inbounds i8, ptr %stepVector, i64 59
  %21 = load i8, ptr %isConstantMapping_.i.i.i, align 1
  %22 = and i8 %21, 1
  %tobool2.not.i.i.i = icmp eq i8 %22, 0
  br i1 %tobool2.not.i.i.i, label %if.end4.i.i.i, label %if.then3.i.i.i

if.then3.i.i.i:                                   ; preds = %if.end.i.i.i
  %constantIndex_.i.i.i = getelementptr inbounds i8, ptr %stepVector, i64 64
  %23 = load i32, ptr %constantIndex_.i.i.i, align 8
  br label %_ZNK8facebook5velox13DecodedVector7valueAtIiEET_i.exit.i

if.end4.i.i.i:                                    ; preds = %if.end.i.i.i
  %indices_.i.i.i = getelementptr inbounds i8, ptr %stepVector, i64 8
  %24 = load ptr, ptr %indices_.i.i.i, align 8
  %idxprom.i.i.i = sext i32 %row to i64
  %arrayidx.i.i.i = getelementptr inbounds i32, ptr %24, i64 %idxprom.i.i.i
  %25 = load i32, ptr %arrayidx.i.i.i, align 4
  br label %_ZNK8facebook5velox13DecodedVector7valueAtIiEET_i.exit.i

_ZNK8facebook5velox13DecodedVector7valueAtIiEET_i.exit.i: ; preds = %if.end4.i.i.i, %if.then3.i.i.i, %if.end.i
  %retval.0.i.i.i = phi i32 [ %23, %if.then3.i.i.i ], [ %25, %if.end4.i.i.i ], [ %row, %if.end.i ]
  %idxprom.i.i33 = sext i32 %retval.0.i.i.i to i64
  %arrayidx.i.i34 = getelementptr inbounds i32, ptr %18, i64 %idxprom.i.i33
  %26 = load i32, ptr %arrayidx.i.i34, align 4
  %isDate.not.i = xor i1 %isDate, true
  %brmerge.i = or i1 %isDate.not.i, %isYearMonth
  br i1 %brmerge.i, label %_ZN8facebook5velox9functions12_GLOBAL__N_116SequenceFunctionIiiE7getStepEllPNS0_13DecodedVectorEibb.exit, label %if.end5.i

if.end5.i:                                        ; preds = %_ZNK8facebook5velox13DecodedVector7valueAtIiEET_i.exit.i
  %rem4.i = srem i32 %26, 86400000
  %div5.i = sdiv i32 %26, 86400000
  %cmp6.not.i = icmp eq i32 %rem4.i, 0
  br i1 %cmp6.not.i, label %_ZN8facebook5velox9functions12_GLOBAL__N_116SequenceFunctionIiiE7getStepEllPNS0_13DecodedVectorEibb.exit, label %if.then8.i

if.then8.i:                                       ; preds = %if.end5.i
  tail call void @llvm.trap()
  unreachable

_ZN8facebook5velox9functions12_GLOBAL__N_116SequenceFunctionIiiE7getStepEllPNS0_13DecodedVectorEibb.exit: ; preds = %if.end5.i, %_ZNK8facebook5velox13DecodedVector7valueAtIiEET_i.exit.i
  %retval.0.i = phi i32 [ %26, %_ZNK8facebook5velox13DecodedVector7valueAtIiEET_i.exit.i ], [ %div5.i, %if.end5.i ]
  %cmp.not = icmp eq i32 %retval.0.i, 0
  br i1 %cmp.not, label %if.then, label %if.end

if.then:                                          ; preds = %_ZN8facebook5velox9functions12_GLOBAL__N_116SequenceFunctionIiiE7getStepEllPNS0_13DecodedVectorEibb.exit
  tail call void @llvm.trap()
  unreachable

if.end:                                           ; preds = %_ZN8facebook5velox9functions12_GLOBAL__N_116SequenceFunctionIiiE7getStepEllPNS0_13DecodedVectorEibb.exit.thread, %_ZN8facebook5velox9functions12_GLOBAL__N_116SequenceFunctionIiiE7getStepEllPNS0_13DecodedVectorEibb.exit
  %retval.0.i39 = phi i32 [ %cond.i, %_ZN8facebook5velox9functions12_GLOBAL__N_116SequenceFunctionIiiE7getStepEllPNS0_13DecodedVectorEibb.exit.thread ], [ %retval.0.i, %_ZN8facebook5velox9functions12_GLOBAL__N_116SequenceFunctionIiiE7getStepEllPNS0_13DecodedVectorEibb.exit ]
  %cmp7 = icmp sgt i32 %retval.0.i39, 0
  %cmp8 = icmp sge i32 %17, %8
  %cmp9 = icmp sle i32 %17, %8
  %cond = select i1 %cmp7, i1 %cmp8, i1 %cmp9
  br i1 %cond, label %if.end12, label %if.then11

if.then11:                                        ; preds = %if.end
  tail call void @llvm.trap()
  unreachable

if.end12:                                         ; preds = %if.end
  br i1 %isYearMonth, label %if.then14, label %if.else

if.then14:                                        ; preds = %if.end12
  %call15 = tail call fastcc noundef { i64, i64 } @_ZN8facebook5velox9functions12_GLOBAL__N_112getStepCountEiii(i32 noundef %8, i32 noundef %17, i32 noundef %retval.0.i39)
  %27 = extractvalue { i64, i64 } %call15, 0
  %28 = extractvalue { i64, i64 } %call15, 1
  %coerce.sroa.2.0.insert.ext = zext i64 %28 to i128
  %coerce.sroa.2.0.insert.shift = shl nuw i128 %coerce.sroa.2.0.insert.ext, 64
  %coerce.sroa.0.0.insert.ext = zext i64 %27 to i128
  %coerce.sroa.0.0.insert.insert = or disjoint i128 %coerce.sroa.2.0.insert.shift, %coerce.sroa.0.0.insert.ext
  br label %if.end20

if.else:                                          ; preds = %if.end12
  %narrow = sub nsw i64 %conv.i32, %conv.i
  %div.rhs.trunc = sext i32 %retval.0.i39 to i64
  %div40 = sdiv i64 %narrow, %div.rhs.trunc
  %div.sext = sext i64 %div40 to i128
  %add = add nsw i128 %div.sext, 1
  br label %if.end20

if.end20:                                         ; preds = %if.else, %if.then14
  %sequenceCount.0 = phi i128 [ %coerce.sroa.0.0.insert.insert, %if.then14 ], [ %add, %if.else ]
  %cmp21 = icmp sgt i128 %sequenceCount.0, 10000
  br i1 %cmp21, label %if.then24, label %if.end25

if.then24:                                        ; preds = %if.end20
  tail call void @llvm.trap()
  unreachable

if.end25:                                         ; preds = %if.end20
  %conv26 = trunc i128 %sequenceCount.0 to i32
  ret i32 %conv26
}